target datalayout = "e-m:e-p270:32:32-p271:32:32-p272:64:64-i64:64-i128:128-f80:128-n8:16:32:64-S128"
target triple = "x86_64-pc-linux-gnu"

%struct.Vec_Int_t_ = type { i32, i32, ptr }
%struct.Gia_Iso2Man_t_ = type { ptr, i32, i32, ptr, ptr, ptr, ptr, ptr, ptr, ptr, ptr, ptr, i32, i64, i64, i64, i64, i64, i64 }
%struct.Vec_Ptr_t_ = type { i32, i32, ptr }

@.str = private unnamed_addr constant [13 x i8] c"Iter %4d :  \00", align 1
@.str.1 = private unnamed_addr constant [16 x i8] c"Entries =%8d.  \00", align 1
@.str.2 = private unnamed_addr constant [16 x i8] c"Uniques =%8d.  \00", align 1
@.str.3 = private unnamed_addr constant [16 x i8] c"Singles =%8d.  \00", align 1
@.str.4 = private unnamed_addr constant [10 x i8] c"%9.2f sec\00", align 1
@.str.5 = private unnamed_addr constant [2 x i8] c"\0A\00", align 1
@stdout = external global ptr, align 8

; Function Attrs: inlinehint nounwind uwtable
define internal i32 @Vec_PtrSize(ptr noundef %0) #2 {
  %2 = alloca ptr, align 8
  store ptr %0, ptr %2, align 8, !tbaa !67
  %3 = load ptr, ptr %2, align 8, !tbaa !67
  %4 = getelementptr inbounds nuw %struct.Vec_Ptr_t_, ptr %3, i32 0, i32 1
  %5 = load i32, ptr %4, align 4, !tbaa !68
  ret i32 %5
}

; Function Attrs: inlinehint nounwind uwtable
define internal i32 @Vec_IntSize(ptr noundef %0) #2 {
  %2 = alloca ptr, align 8
  store ptr %0, ptr %2, align 8, !tbaa !8
  %3 = load ptr, ptr %2, align 8, !tbaa !8
  %4 = getelementptr inbounds nuw %struct.Vec_Int_t_, ptr %3, i32 0, i32 1
  %5 = load i32, ptr %4, align 4, !tbaa !34
  ret i32 %5
}

; Function Attrs: nounwind uwtable
define void @Gia_Iso2ManPrint(ptr noundef %0, i64 noundef %1, i32 noundef %2) #0 {
  %4 = alloca ptr, align 8
  %5 = alloca i64, align 8
  %6 = alloca i32, align 4
  store ptr %0, ptr %4, align 8, !tbaa !49
  store i64 %1, ptr %5, align 8, !tbaa !72
  store i32 %2, ptr %6, align 4, !tbaa !10
  %7 = load i32, ptr %6, align 4, !tbaa !10
  %8 = icmp ne i32 %7, 0
  br i1 %8, label %10, label %9

9:                                                ; preds = %3
  br label %38

10:                                               ; preds = %3
  %11 = load ptr, ptr %4, align 8, !tbaa !49
  %12 = getelementptr inbounds nuw %struct.Gia_Iso2Man_t_, ptr %11, i32 0, i32 12
  %13 = load i32, ptr %12, align 8, !tbaa !73
  %14 = add nsw i32 %13, 1
  store i32 %14, ptr %12, align 8, !tbaa !73
  %15 = call i32 (ptr, ...) @printf(ptr noundef @.str, i32 noundef %13)
  %16 = load ptr, ptr %4, align 8, !tbaa !49
  %17 = getelementptr inbounds nuw %struct.Gia_Iso2Man_t_, ptr %16, i32 0, i32 4
  %18 = load ptr, ptr %17, align 8, !tbaa !51
  %19 = call i32 @Vec_IntSize(ptr noundef %18)
  %20 = call i32 (ptr, ...) @printf(ptr noundef @.str.1, i32 noundef %19)
  %21 = load ptr, ptr %4, align 8, !tbaa !49
  %22 = getelementptr inbounds nuw %struct.Gia_Iso2Man_t_, ptr %21, i32 0, i32 2
  %23 = load i32, ptr %22, align 4, !tbaa !56
  %24 = call i32 (ptr, ...) @printf(ptr noundef @.str.2, i32 noundef %23)
  %25 = load ptr, ptr %4, align 8, !tbaa !49
  %26 = getelementptr inbounds nuw %struct.Gia_Iso2Man_t_, ptr %25, i32 0, i32 7
  %27 = load ptr, ptr %26, align 8, !tbaa !60
  %28 = call i32 @Vec_PtrSize(ptr noundef %27)
  %29 = call i32 (ptr, ...) @printf(ptr noundef @.str.3, i32 noundef %28)
  %30 = load i64, ptr %5, align 8, !tbaa !72
  %31 = sitofp i64 %30 to float
  %32 = fdiv float %31, 1.000000e+06
  %33 = fpext float %32 to double
  %34 = call i32 (ptr, ...) @printf(ptr noundef @.str.4, double noundef %33)
  %35 = call i32 (ptr, ...) @printf(ptr noundef @.str.5)
  %36 = load ptr, ptr @stdout, align 8, !tbaa !74
  %37 = call i32 @fflush(ptr noundef %36)
  br label %38

38:                                               ; preds = %10, %9
  ret void
}