; Function Attrs: nofree nounwind uwtable
define void @Gia_Iso2ManPrint(ptr noundef captures(none) %0, i64 noundef %1, i32 noundef %2) local_unnamed_addr #8 {
  %.not = icmp eq i32 %2, 0
  br i1 %.not, label %26, label %4

4:                                                ; preds = %3
  %5 = getelementptr inbounds nuw i8, ptr %0, i64 88
  %6 = load i32, ptr %5, align 8, !tbaa !66
  %7 = add nsw i32 %6, 1
  store i32 %7, ptr %5, align 8, !tbaa !66
  %8 = tail call i32 (ptr, ...) @printf(ptr noundef nonnull dereferenceable(1) @.str, i32 noundef %6)
  %9 = getelementptr inbounds nuw i8, ptr %0, i64 24
  %10 = load ptr, ptr %9, align 8, !tbaa !46
  %11 = getelementptr i8, ptr %10, i64 4
  %.val = load i32, ptr %11, align 4, !tbaa !28
  %12 = tail call i32 (ptr, ...) @printf(ptr noundef nonnull dereferenceable(1) @.str.1, i32 noundef %.val)
  %13 = getelementptr inbounds nuw i8, ptr %0, i64 12
  %14 = load i32, ptr %13, align 4, !tbaa !65
  %15 = tail call i32 (ptr, ...) @printf(ptr noundef nonnull dereferenceable(1) @.str.2, i32 noundef %14)
  %16 = getelementptr inbounds nuw i8, ptr %0, i64 48
  %17 = load ptr, ptr %16, align 8, !tbaa !60
  %18 = getelementptr i8, ptr %17, i64 4
  %.val5 = load i32, ptr %18, align 4, !tbaa !56
  %19 = tail call i32 (ptr, ...) @printf(ptr noundef nonnull dereferenceable(1) @.str.3, i32 noundef %.val5)
  %20 = sitofp i64 %1 to float
  %21 = fdiv float %20, 1.000000e+06
  %22 = fpext float %21 to double
  %23 = tail call i32 (ptr, ...) @printf(ptr noundef nonnull dereferenceable(1) @.str.4, double noundef %22)
  %putchar = tail call i32 @putchar(i32 10)
  %24 = load ptr, ptr @stdout, align 8, !tbaa !67
  %25 = tail call i32 @fflush(ptr noundef %24)
  br label %26

26:                                               ; preds = %3, %4
  ret void
}